; ModuleID = '35/2528.cpp'
source_filename = "35/2528.cpp"
target datalayout = "e-m:e-p270:32:32-p271:32:32-p272:64:64-i64:64-f80:128-n8:16:32:64-S128"
target triple = "x86_64-pc-linux-gnu"

%"class.std::ios_base::Init" = type { i8 }
%"class.std::basic_istream" = type { i32 (...)**, i64, %"class.std::basic_ios" }
%"class.std::basic_ios" = type { %"class.std::ios_base", %"class.std::basic_ostream"*, i8, i8, %"class.std::basic_streambuf"*, %"class.std::ctype"*, %"class.std::num_put"*, %"class.std::num_get"* }
%"class.std::ios_base" = type { i32 (...)**, i64, i64, i32, i32, i32, %"struct.std::ios_base::_Callback_list"*, %"struct.std::ios_base::_Words", [8 x %"struct.std::ios_base::_Words"], i32, %"struct.std::ios_base::_Words"*, %"class.std::locale" }
%"struct.std::ios_base::_Callback_list" = type { %"struct.std::ios_base::_Callback_list"*, void (i32, %"class.std::ios_base"*, i32)*, i32, i32 }
%"struct.std::ios_base::_Words" = type { i8*, i64 }
%"class.std::locale" = type { %"class.std::locale::_Impl"* }
%"class.std::locale::_Impl" = type { i32, %"class.std::locale::facet"**, i64, %"class.std::locale::facet"**, i8** }
%"class.std::locale::facet" = type <{ i32 (...)**, i32, [4 x i8] }>
%"class.std::basic_ostream" = type { i32 (...)**, %"class.std::basic_ios" }
%"class.std::basic_streambuf" = type { i32 (...)**, i8*, i8*, i8*, i8*, i8*, i8*, %"class.std::locale" }
%"class.std::ctype" = type <{ %"class.std::locale::facet.base", [4 x i8], %struct.__locale_struct*, i8, [7 x i8], i32*, i32*, i16*, i8, [256 x i8], [256 x i8], i8, [6 x i8] }>
%"class.std::locale::facet.base" = type <{ i32 (...)**, i32 }>
%struct.__locale_struct = type { [13 x %struct.__locale_data*], i16*, i32*, i32*, [13 x i8*] }
%struct.__locale_data = type opaque
%"class.std::num_put" = type { %"class.std::locale::facet.base", [4 x i8] }
%"class.std::num_get" = type { %"class.std::locale::facet.base", [4 x i8] }

@_ZStL8__ioinit = internal global %"class.std::ios_base::Init" zeroinitializer, align 1
@__dso_handle = external hidden global i8
@.str = private unnamed_addr constant [6 x i8] c"%d,%d\00", align 1
@_ZSt3cin = external dso_local global %"class.std::basic_istream", align 8
@_ZSt4cout = external dso_local global %"class.std::basic_ostream", align 8
@.str.1 = private unnamed_addr constant [2 x i8] c"+\00", align 1
@.str.2 = private unnamed_addr constant [3 x i8] c"No\00", align 1
@llvm.global_ctors = appending global [1 x { i32, void ()*, i8* }] [{ i32, void ()*, i8* } { i32 65535, void ()* @_GLOBAL__sub_I_2528.cpp, i8* null }]

; Function Attrs: noinline uwtable
define internal void @__cxx_global_var_init() #0 section ".text.startup" {
  call void @_ZNSt8ios_base4InitC1Ev(%"class.std::ios_base::Init"* @_ZStL8__ioinit)
  %1 = call i32 @__cxa_atexit(void (i8*)* bitcast (void (%"class.std::ios_base::Init"*)* @_ZNSt8ios_base4InitD1Ev to void (i8*)*), i8* getelementptr inbounds (%"class.std::ios_base::Init", %"class.std::ios_base::Init"* @_ZStL8__ioinit, i32 0, i32 0), i8* @__dso_handle) #3
  ret void
}

declare dso_local void @_ZNSt8ios_base4InitC1Ev(%"class.std::ios_base::Init"*) unnamed_addr #1

; Function Attrs: nounwind
declare dso_local void @_ZNSt8ios_base4InitD1Ev(%"class.std::ios_base::Init"*) unnamed_addr #2

; Function Attrs: nounwind
declare dso_local i32 @__cxa_atexit(void (i8*)*, i8*, i8*) #3

; Function Attrs: noinline norecurse uwtable
define dso_local i32 @main() #4 {
  %1 = alloca i32, align 4
  %2 = alloca i32, align 4
  %3 = alloca i32, align 4
  %4 = alloca i32, align 4
  %5 = alloca i32, align 4
  %6 = alloca i32, align 4
  %7 = alloca i32, align 4
  %8 = alloca [8 x [8 x i32]], align 16
  %9 = alloca i32, align 4
  %10 = alloca i32, align 4
  store i32 0, i32* %1, align 4
  %11 = call i32 (i8*, ...) @__isoc99_scanf(i8* getelementptr inbounds ([6 x i8], [6 x i8]* @.str, i64 0, i64 0), i32* %2, i32* %3)
  store i32 0, i32* %4, align 4
  br label %12

12:                                               ; preds = %33, %0
  %13 = load i32, i32* %4, align 4
  %14 = load i32, i32* %2, align 4
  %15 = icmp slt i32 %13, %14
  br i1 %15, label %16, label %36

16:                                               ; preds = %12
  store i32 0, i32* %5, align 4
  br label %17

17:                                               ; preds = %29, %16
  %18 = load i32, i32* %5, align 4
  %19 = load i32, i32* %3, align 4
  %20 = icmp slt i32 %18, %19
  br i1 %20, label %21, label %32

21:                                               ; preds = %17
  %22 = load i32, i32* %4, align 4
  %23 = sext i32 %22 to i64
  %24 = getelementptr inbounds [8 x [8 x i32]], [8 x [8 x i32]]* %8, i64 0, i64 %23
  %25 = load i32, i32* %5, align 4
  %26 = sext i32 %25 to i64
  %27 = getelementptr inbounds [8 x i32], [8 x i32]* %24, i64 0, i64 %26
  %28 = call dereferenceable(280) %"class.std::basic_istream"* @_ZNSirsERi(%"class.std::basic_istream"* @_ZSt3cin, i32* dereferenceable(4) %27)
  br label %29

29:                                               ; preds = %21
  %30 = load i32, i32* %5, align 4
  %31 = add nsw i32 %30, 1
  store i32 %31, i32* %5, align 4
  br label %17

32:                                               ; preds = %17
  br label %33

33:                                               ; preds = %32
  %34 = load i32, i32* %4, align 4
  %35 = add nsw i32 %34, 1
  store i32 %35, i32* %4, align 4
  br label %12

36:                                               ; preds = %12
  store i32 0, i32* %4, align 4
  br label %37

37:                                               ; preds = %108, %36
  %38 = load i32, i32* %4, align 4
  %39 = load i32, i32* %2, align 4
  %40 = icmp slt i32 %38, %39
  br i1 %40, label %41, label %111

41:                                               ; preds = %37
  store i32 0, i32* %10, align 4
  store i32 0, i32* %5, align 4
  br label %42

42:                                               ; preds = %67, %41
  %43 = load i32, i32* %5, align 4
  %44 = load i32, i32* %3, align 4
  %45 = icmp slt i32 %43, %44
  br i1 %45, label %46, label %70

46:                                               ; preds = %42
  %47 = load i32, i32* %4, align 4
  %48 = sext i32 %47 to i64
  %49 = getelementptr inbounds [8 x [8 x i32]], [8 x [8 x i32]]* %8, i64 0, i64 %48
  %50 = load i32, i32* %5, align 4
  %51 = sext i32 %50 to i64
  %52 = getelementptr inbounds [8 x i32], [8 x i32]* %49, i64 0, i64 %51
  %53 = load i32, i32* %52, align 4
  %54 = load i32, i32* %10, align 4
  %55 = icmp sgt i32 %53, %54
  br i1 %55, label %56, label %66

56:                                               ; preds = %46
  %57 = load i32, i32* %4, align 4
  %58 = sext i32 %57 to i64
  %59 = getelementptr inbounds [8 x [8 x i32]], [8 x [8 x i32]]* %8, i64 0, i64 %58
  %60 = load i32, i32* %5, align 4
  %61 = sext i32 %60 to i64
  %62 = getelementptr inbounds [8 x i32], [8 x i32]* %59, i64 0, i64 %61
  %63 = load i32, i32* %62, align 4
  store i32 %63, i32* %10, align 4
  %64 = load i32, i32* %4, align 4
  store i32 %64, i32* %6, align 4
  %65 = load i32, i32* %5, align 4
  store i32 %65, i32* %7, align 4
  br label %66

66:                                               ; preds = %56, %46
  br label %67

67:                                               ; preds = %66
  %68 = load i32, i32* %5, align 4
  %69 = add nsw i32 %68, 1
  store i32 %69, i32* %5, align 4
  br label %42

70:                                               ; preds = %42
  store i32 0, i32* %9, align 4
  br label %71

71:                                               ; preds = %104, %70
  %72 = load i32, i32* %9, align 4
  %73 = load i32, i32* %2, align 4
  %74 = icmp slt i32 %72, %73
  br i1 %74, label %75, label %107

75:                                               ; preds = %71
  %76 = load i32, i32* %9, align 4
  %77 = sext i32 %76 to i64
  %78 = getelementptr inbounds [8 x [8 x i32]], [8 x [8 x i32]]* %8, i64 0, i64 %77
  %79 = load i32, i32* %7, align 4
  %80 = sext i32 %79 to i64
  %81 = getelementptr inbounds [8 x i32], [8 x i32]* %78, i64 0, i64 %80
  %82 = load i32, i32* %81, align 4
  %83 = load i32, i32* %6, align 4
  %84 = sext i32 %83 to i64
  %85 = getelementptr inbounds [8 x [8 x i32]], [8 x [8 x i32]]* %8, i64 0, i64 %84
  %86 = load i32, i32* %7, align 4
  %87 = sext i32 %86 to i64
  %88 = getelementptr inbounds [8 x i32], [8 x i32]* %85, i64 0, i64 %87
  %89 = load i32, i32* %88, align 4
  %90 = icmp slt i32 %82, %89
  br i1 %90, label %91, label %92

91:                                               ; preds = %75
  br label %107

92:                                               ; preds = %75
  %93 = load i32, i32* %9, align 4
  %94 = load i32, i32* %2, align 4
  %95 = sub nsw i32 %94, 1
  %96 = icmp eq i32 %93, %95
  br i1 %96, label %97, label %103

97:                                               ; preds = %92
  %98 = load i32, i32* %6, align 4
  %99 = call dereferenceable(272) %"class.std::basic_ostream"* @_ZNSolsEi(%"class.std::basic_ostream"* @_ZSt4cout, i32 %98)
  %100 = call dereferenceable(272) %"class.std::basic_ostream"* @_ZStlsISt11char_traitsIcEERSt13basic_ostreamIcT_ES5_PKc(%"class.std::basic_ostream"* dereferenceable(272) %99, i8* getelementptr inbounds ([2 x i8], [2 x i8]* @.str.1, i64 0, i64 0))
  %101 = load i32, i32* %7, align 4
  %102 = call dereferenceable(272) %"class.std::basic_ostream"* @_ZNSolsEi(%"class.std::basic_ostream"* %100, i32 %101)
  store i32 0, i32* %1, align 4
  br label %113

103:                                              ; preds = %92
  br label %104

104:                                              ; preds = %103
  %105 = load i32, i32* %9, align 4
  %106 = add nsw i32 %105, 1
  store i32 %106, i32* %9, align 4
  br label %71

107:                                              ; preds = %91, %71
  br label %108

108:                                              ; preds = %107
  %109 = load i32, i32* %4, align 4
  %110 = add nsw i32 %109, 1
  store i32 %110, i32* %4, align 4
  br label %37

111:                                              ; preds = %37
  %112 = call dereferenceable(272) %"class.std::basic_ostream"* @_ZStlsISt11char_traitsIcEERSt13basic_ostreamIcT_ES5_PKc(%"class.std::basic_ostream"* dereferenceable(272) @_ZSt4cout, i8* getelementptr inbounds ([3 x i8], [3 x i8]* @.str.2, i64 0, i64 0))
  store i32 0, i32* %1, align 4
  br label %113

113:                                              ; preds = %111, %97
  %114 = load i32, i32* %1, align 4
  ret i32 %114
}

declare dso_local i32 @__isoc99_scanf(i8*, ...) #1

declare dso_local dereferenceable(280) %"class.std::basic_istream"* @_ZNSirsERi(%"class.std::basic_istream"*, i32* dereferenceable(4)) #1

declare dso_local dereferenceable(272) %"class.std::basic_ostream"* @_ZStlsISt11char_traitsIcEERSt13basic_ostreamIcT_ES5_PKc(%"class.std::basic_ostream"* dereferenceable(272), i8*) #1

declare dso_local dereferenceable(272) %"class.std::basic_ostream"* @_ZNSolsEi(%"class.std::basic_ostream"*, i32) #1

; Function Attrs: noinline uwtable
define internal void @_GLOBAL__sub_I_2528.cpp() #0 section ".text.startup" {
  call void @__cxx_global_var_init()
  ret void
}


!llvm.module.flags = !{!0}
!llvm.ident = !{!1}

!0 = !{i32 1, !"wchar_size", i32 4}
!1 = !{!"clang version 10.0.0-4ubuntu1 "}
